; Function Attrs: mustprogress uwtable
define internal noundef i64 @_ZN7rocksdb12_GLOBAL__N_125LegacyWritableFileWrapper11GetFileSizeERKNS_9IOOptionsEPNS_14IODebugContextE(ptr noundef nonnull readonly align 8 captures(none) dereferenceable(48) %0, ptr nonnull readnone align 8 captures(none) %1, ptr readnone captures(none) %2) unnamed_addr #4 align 2 {
  %4 = getelementptr inbounds nuw i8, ptr %0, i64 40
  %5 = load ptr, ptr %4, align 8, !tbaa !472
  %6 = load ptr, ptr %5, align 8, !tbaa !18
  %7 = getelementptr inbounds nuw i8, ptr %6, i64 144
  %8 = load ptr, ptr %7, align 8
  %9 = tail call noundef i64 %8(ptr noundef nonnull align 8 dereferenceable(33) %5)
  ret i64 %9
}